; Function Attrs: null_pointer_is_valid sspstrong uwtable
define internal noundef zeroext i16 @de_bssgp_no_of_oct_affected(ptr noundef %0, ptr noundef %1, ptr readnone captures(none) %2, i32 noundef %3, i32 %4, ptr noundef %5, i32 noundef %6) #1 {
  %8 = tail call i32 @tvb_get_ntoh24(ptr noundef %0, i32 noundef %3)
  %9 = load i32, ptr @hf_bssgp_no_of_oct, align 4
  %10 = tail call ptr @proto_tree_add_item(ptr noundef %1, i32 noundef %9, ptr noundef %0, i32 noundef %3, i32 noundef 3, i32 noundef 0)
  %.not = icmp eq ptr %5, null
  br i1 %.not, label %14, label %11

11:                                               ; preds = %7
  %12 = sext i32 %6 to i64
  %13 = tail call i32 (ptr, i64, i32, i64, ptr, ...) @__snprintf_chk(ptr noundef nonnull %5, i64 noundef %12, i32 noundef 2, i64 noundef -1, ptr noundef nonnull @.str.455, i32 noundef %8)
  br label %14

14:                                               ; preds = %11, %7
  ret i16 3
}